In archive libmy_lcd.a:

my_lcd.o:     file format elf32-avr

Sections:
Idx Name          Size      VMA       LMA       File off  Algn
  0 .text         00000000  00000000  00000000  00000034  2**0
                  CONTENTS, ALLOC, LOAD, READONLY, CODE
  1 .data         00000000  00000000  00000000  00000034  2**0
                  CONTENTS, ALLOC, LOAD, DATA
  2 .bss          00000000  00000000  00000000  00000034  2**0
                  ALLOC
  3 .text.ctrl_set 00000018  00000000  00000000  00000034  2**0
                  CONTENTS, ALLOC, LOAD, RELOC, READONLY, CODE
  4 .text.ctrl_clear 0000001a  00000000  00000000  0000004c  2**0
                  CONTENTS, ALLOC, LOAD, RELOC, READONLY, CODE
  5 .text.pulse_EN 00000028  00000000  00000000  00000066  2**0
                  CONTENTS, ALLOC, LOAD, RELOC, READONLY, CODE
  6 .text.LCD_writeInstruction 00000072  00000000  00000000  0000008e  2**0
                  CONTENTS, ALLOC, LOAD, RELOC, READONLY, CODE
  7 .text.my_lcd_process_delayTime 00000012  00000000  00000000  00000100  2**0
                  CONTENTS, ALLOC, LOAD, RELOC, READONLY, CODE
  8 .text.my_lcd_clear 0000005c  00000000  00000000  00000112  2**0
                  CONTENTS, ALLOC, LOAD, RELOC, READONLY, CODE
  9 .text.my_lcd_init 000000d6  00000000  00000000  0000016e  2**0
                  CONTENTS, ALLOC, LOAD, RELOC, READONLY, CODE
 10 .text.my_lcd_display 00000112  00000000  00000000  00000244  2**0
                  CONTENTS, ALLOC, LOAD, RELOC, READONLY, CODE
 11 .rodata.str1.1 00000003  00000000  00000000  00000356  2**0
                  CONTENTS, ALLOC, LOAD, READONLY, DATA
 12 .text.my_lcd_display_AutoWrap 0000024e  00000000  00000000  00000359  2**0
                  CONTENTS, ALLOC, LOAD, RELOC, READONLY, CODE
 13 .data.g_delay 00000002  00000000  00000000  000005a7  2**0
                  CONTENTS, ALLOC, LOAD, DATA
 14 .data.c_delay 00000002  00000000  00000000  000005a9  2**0
                  CONTENTS, ALLOC, LOAD, DATA
 15 .data.bitmode 00000001  00000000  00000000  000005ab  2**0
                  CONTENTS, ALLOC, LOAD, DATA
 16 .bss.ctrl_port_mode_b 00000001  00000000  00000000  000005ac  2**0
                  ALLOC
 17 .comment      00000012  00000000  00000000  000005ac  2**0
                  CONTENTS, READONLY

Disassembly of section .text.ctrl_set:

00000000 <ctrl_set>:
   0:	90 91 00 00 	lds	r25, 0x0000
   4:	99 23       	and	r25, r25
   6:	01 f0       	breq	.+0      	; 0x8 <ctrl_set+0x8>
   8:	95 b1       	in	r25, 0x05	; 5
   a:	98 2b       	or	r25, r24
   c:	95 b9       	out	0x05, r25	; 5
   e:	08 95       	ret
  10:	98 b1       	in	r25, 0x08	; 8
  12:	98 2b       	or	r25, r24
  14:	98 b9       	out	0x08, r25	; 8
  16:	08 95       	ret

Disassembly of section .text.ctrl_clear:

00000018 <ctrl_clear>:
  18:	90 91 00 00 	lds	r25, 0x0000
  1c:	80 95       	com	r24
  1e:	99 23       	and	r25, r25
  20:	01 f0       	breq	.+0      	; 0x22 <ctrl_clear+0xa>
  22:	95 b1       	in	r25, 0x05	; 5
  24:	98 23       	and	r25, r24
  26:	95 b9       	out	0x05, r25	; 5
  28:	08 95       	ret
  2a:	98 b1       	in	r25, 0x08	; 8
  2c:	98 23       	and	r25, r24
  2e:	98 b9       	out	0x08, r25	; 8
  30:	08 95       	ret

Disassembly of section .text.pulse_EN:

0000004a <pulse_EN>:
  4a:	ef 92       	push	r14
  4c:	ff 92       	push	r15
  4e:	88 e0       	ldi	r24, 0x08	; 8
  50:	0e 94 00 00 	call	0	; 0x0 <ctrl_set>
  54:	84 e0       	ldi	r24, 0x04	; 4
  56:	e8 2e       	mov	r14, r24
  58:	f1 2c       	mov	r15, r1
  5a:	c7 01       	movw	r24, r14
  5c:	01 97       	sbiw	r24, 0x01	; 1
  5e:	01 f4       	brne	.+0      	; 0x60 <pulse_EN+0x16>
  60:	88 e0       	ldi	r24, 0x08	; 8
  62:	0e 94 00 00 	call	0	; 0x0 <ctrl_set>
  66:	c7 01       	movw	r24, r14
  68:	01 97       	sbiw	r24, 0x01	; 1
  6a:	01 f4       	brne	.+0      	; 0x6c <pulse_EN+0x22>
  6c:	ff 90       	pop	r15
  6e:	ef 90       	pop	r14
  70:	08 95       	ret

Disassembly of section .text.LCD_writeInstruction:

000000bc <LCD_writeInstruction>:
  bc:	ef 92       	push	r14
  be:	ff 92       	push	r15
  c0:	7c 01       	movw	r14, r24
  c2:	80 e2       	ldi	r24, 0x20	; 32
  c4:	0e 94 00 00 	call	0	; 0x0 <ctrl_set>
  c8:	80 e1       	ldi	r24, 0x10	; 16
  ca:	0e 94 00 00 	call	0	; 0x0 <ctrl_set>
  ce:	80 91 00 00 	lds	r24, 0x0000
  d2:	88 30       	cpi	r24, 0x08	; 8
  d4:	01 f4       	brne	.+0      	; 0xd6 <LCD_writeInstruction+0x1a>
  d6:	eb b8       	out	0x0b, r14	; 11
  d8:	0e 94 00 00 	call	0	; 0x0 <ctrl_set>
  dc:	e0 91 00 00 	lds	r30, 0x0000
  e0:	f0 91 00 00 	lds	r31, 0x0000
  e4:	ee 0f       	add	r30, r30
  e6:	ff 1f       	adc	r31, r31
  e8:	ee 0f       	add	r30, r30
  ea:	ff 1f       	adc	r31, r31
  ec:	31 97       	sbiw	r30, 0x01	; 1
  ee:	01 f4       	brne	.+0      	; 0xf0 <LCD_writeInstruction+0x34>
  f0:	80 91 00 00 	lds	r24, 0x0000
  f4:	84 30       	cpi	r24, 0x04	; 4
  f6:	01 f4       	brne	.+0      	; 0xf8 <LCD_writeInstruction+0x3c>
  f8:	c7 01       	movw	r24, r14
  fa:	80 7f       	andi	r24, 0xF0	; 240
  fc:	99 27       	eor	r25, r25
  fe:	8b b9       	out	0x0b, r24	; 11
 100:	0e 94 00 00 	call	0	; 0x0 <ctrl_set>
 104:	94 e0       	ldi	r25, 0x04	; 4
 106:	ee 0c       	add	r14, r14
 108:	ff 1c       	adc	r15, r15
 10a:	9a 95       	dec	r25
 10c:	01 f4       	brne	.+0      	; 0x10e <LCD_writeInstruction+0x52>
 10e:	eb b8       	out	0x0b, r14	; 11
 110:	0e 94 00 00 	call	0	; 0x0 <ctrl_set>
 114:	80 91 00 00 	lds	r24, 0x0000
 118:	90 91 00 00 	lds	r25, 0x0000
 11c:	88 0f       	add	r24, r24
 11e:	99 1f       	adc	r25, r25
 120:	88 0f       	add	r24, r24
 122:	99 1f       	adc	r25, r25
 124:	01 97       	sbiw	r24, 0x01	; 1
 126:	01 f4       	brne	.+0      	; 0x128 <LCD_writeInstruction+0x6c>
 128:	ff 90       	pop	r15
 12a:	ef 90       	pop	r14
 12c:	08 95       	ret

Disassembly of section .text.my_lcd_process_delayTime:

000001ea <my_lcd_process_delayTime>:
 1ea:	90 93 00 00 	sts	0x0000, r25
 1ee:	80 93 00 00 	sts	0x0000, r24
 1f2:	70 93 00 00 	sts	0x0000, r23
 1f6:	60 93 00 00 	sts	0x0000, r22
 1fa:	08 95       	ret

Disassembly of section .text.my_lcd_clear:

000003e6 <my_lcd_clear>:
 3e6:	80 e2       	ldi	r24, 0x20	; 32
 3e8:	0e 94 00 00 	call	0	; 0x0 <ctrl_set>
 3ec:	80 e1       	ldi	r24, 0x10	; 16
 3ee:	0e 94 00 00 	call	0	; 0x0 <ctrl_set>
 3f2:	80 91 00 00 	lds	r24, 0x0000
 3f6:	88 30       	cpi	r24, 0x08	; 8
 3f8:	01 f4       	brne	.+0      	; 0x3fa <my_lcd_clear+0x14>
 3fa:	81 e0       	ldi	r24, 0x01	; 1
 3fc:	8b b9       	out	0x0b, r24	; 11
 3fe:	0e 94 00 00 	call	0	; 0x0 <ctrl_set>
 402:	80 91 00 00 	lds	r24, 0x0000
 406:	90 91 00 00 	lds	r25, 0x0000
 40a:	88 0f       	add	r24, r24
 40c:	99 1f       	adc	r25, r25
 40e:	88 0f       	add	r24, r24
 410:	99 1f       	adc	r25, r25
 412:	01 97       	sbiw	r24, 0x01	; 1
 414:	01 f4       	brne	.+0      	; 0x416 <my_lcd_clear+0x30>
 416:	80 91 00 00 	lds	r24, 0x0000
 41a:	84 30       	cpi	r24, 0x04	; 4
 41c:	01 f4       	brne	.+0      	; 0x41e <my_lcd_clear+0x38>
 41e:	1b b8       	out	0x0b, r1	; 11
 420:	0e 94 00 00 	call	0	; 0x0 <ctrl_set>
 424:	80 e1       	ldi	r24, 0x10	; 16
 426:	8b b9       	out	0x0b, r24	; 11
 428:	0e 94 00 00 	call	0	; 0x0 <ctrl_set>
 42c:	80 91 00 00 	lds	r24, 0x0000
 430:	90 91 00 00 	lds	r25, 0x0000
 434:	88 0f       	add	r24, r24
 436:	99 1f       	adc	r25, r25
 438:	88 0f       	add	r24, r24
 43a:	99 1f       	adc	r25, r25
 43c:	01 97       	sbiw	r24, 0x01	; 1
 43e:	01 f4       	brne	.+0      	; 0x440 <my_lcd_clear+0x5a>
 440:	08 95       	ret

Disassembly of section .text.my_lcd_init:

00000828 <my_lcd_init>:
 828:	ef 92       	push	r14
 82a:	ff 92       	push	r15
 82c:	cf 93       	push	r28
 82e:	c8 2f       	mov	r28, r24
 830:	60 93 00 00 	sts	0x0000, r22
 834:	88 e3       	ldi	r24, 0x38	; 56
 836:	66 23       	and	r22, r22
 838:	01 f0       	breq	.+0      	; 0x83a <my_lcd_init+0x12>
 83a:	84 b9       	out	0x04, r24	; 4
 83c:	00 c0       	rjmp	.+0      	; 0x83e <my_lcd_init+0x16>
 83e:	87 b9       	out	0x07, r24	; 7
 840:	8a b1       	in	r24, 0x0a	; 10
 842:	80 6f       	ori	r24, 0xF0	; 240
 844:	8a b9       	out	0x0a, r24	; 10
 846:	2f e7       	ldi	r18, 0x7F	; 127
 848:	82 e3       	ldi	r24, 0x32	; 50
 84a:	92 e0       	ldi	r25, 0x02	; 2
 84c:	21 50       	subi	r18, 0x01	; 1
 84e:	80 40       	sbci	r24, 0x00	; 0
 850:	90 40       	sbci	r25, 0x00	; 0
 852:	01 f4       	brne	.+0      	; 0x854 <my_lcd_init+0x2c>
 854:	00 c0       	rjmp	.+0      	; 0x856 <my_lcd_init+0x2e>
 856:	00 00       	nop
 858:	80 e3       	ldi	r24, 0x30	; 48
 85a:	90 e0       	ldi	r25, 0x00	; 0
 85c:	0e 94 00 00 	call	0	; 0x0 <ctrl_set>
 860:	e0 e1       	ldi	r30, 0x10	; 16
 862:	f0 e4       	ldi	r31, 0x40	; 64
 864:	31 97       	sbiw	r30, 0x01	; 1
 866:	01 f4       	brne	.+0      	; 0x868 <my_lcd_init+0x40>
 868:	80 e3       	ldi	r24, 0x30	; 48
 86a:	90 e0       	ldi	r25, 0x00	; 0
 86c:	0e 94 00 00 	call	0	; 0x0 <ctrl_set>
 870:	60 e9       	ldi	r22, 0x90	; 144
 872:	e6 2e       	mov	r14, r22
 874:	ff 24       	eor	r15, r15
 876:	f3 94       	inc	r15
 878:	f7 01       	movw	r30, r14
 87a:	31 97       	sbiw	r30, 0x01	; 1
 87c:	01 f4       	brne	.+0      	; 0x87e <my_lcd_init+0x56>
 87e:	80 e3       	ldi	r24, 0x30	; 48
 880:	90 e0       	ldi	r25, 0x00	; 0
 882:	0e 94 00 00 	call	0	; 0x0 <ctrl_set>
 886:	f7 01       	movw	r30, r14
 888:	31 97       	sbiw	r30, 0x01	; 1
 88a:	01 f4       	brne	.+0      	; 0x88c <my_lcd_init+0x64>
 88c:	c8 30       	cpi	r28, 0x08	; 8
 88e:	01 f4       	brne	.+0      	; 0x890 <my_lcd_init+0x68>
 890:	c0 93 00 00 	sts	0x0000, r28
 894:	8a b1       	in	r24, 0x0a	; 10
 896:	8f ef       	ldi	r24, 0xFF	; 255
 898:	8a b9       	out	0x0a, r24	; 10
 89a:	88 e3       	ldi	r24, 0x38	; 56
 89c:	90 e0       	ldi	r25, 0x00	; 0
 89e:	0e 94 00 00 	call	0	; 0x0 <ctrl_set>
 8a2:	88 e0       	ldi	r24, 0x08	; 8
 8a4:	90 e0       	ldi	r25, 0x00	; 0
 8a6:	0e 94 00 00 	call	0	; 0x0 <ctrl_set>
 8aa:	0e 94 00 00 	call	0	; 0x0 <ctrl_set>
 8ae:	86 e0       	ldi	r24, 0x06	; 6
 8b0:	90 e0       	ldi	r25, 0x00	; 0
 8b2:	0e 94 00 00 	call	0	; 0x0 <ctrl_set>
 8b6:	8f e0       	ldi	r24, 0x0F	; 15
 8b8:	90 e0       	ldi	r25, 0x00	; 0
 8ba:	00 c0       	rjmp	.+0      	; 0x8bc <my_lcd_init+0x94>
 8bc:	c4 30       	cpi	r28, 0x04	; 4
 8be:	01 f4       	brne	.+0      	; 0x8c0 <my_lcd_init+0x98>
 8c0:	c0 93 00 00 	sts	0x0000, r28
 8c4:	80 e2       	ldi	r24, 0x20	; 32
 8c6:	90 e0       	ldi	r25, 0x00	; 0
 8c8:	0e 94 00 00 	call	0	; 0x0 <ctrl_set>
 8cc:	88 e2       	ldi	r24, 0x28	; 40
 8ce:	90 e0       	ldi	r25, 0x00	; 0
 8d0:	0e 94 00 00 	call	0	; 0x0 <ctrl_set>
 8d4:	88 e0       	ldi	r24, 0x08	; 8
 8d6:	90 e0       	ldi	r25, 0x00	; 0
 8d8:	0e 94 00 00 	call	0	; 0x0 <ctrl_set>
 8dc:	0e 94 00 00 	call	0	; 0x0 <ctrl_set>
 8e0:	86 e0       	ldi	r24, 0x06	; 6
 8e2:	90 e0       	ldi	r25, 0x00	; 0
 8e4:	0e 94 00 00 	call	0	; 0x0 <ctrl_set>
 8e8:	8c e0       	ldi	r24, 0x0C	; 12
 8ea:	90 e0       	ldi	r25, 0x00	; 0
 8ec:	cf 91       	pop	r28
 8ee:	ff 90       	pop	r15
 8f0:	ef 90       	pop	r14
 8f2:	0c 94 00 00 	jmp	0	; 0x0 <ctrl_set>
 8f6:	cf 91       	pop	r28
 8f8:	ff 90       	pop	r15
 8fa:	ef 90       	pop	r14
 8fc:	08 95       	ret

Disassembly of section .text.my_lcd_display:

00001126 <my_lcd_display>:
    1126:	af 92       	push	r10
    1128:	bf 92       	push	r11
    112a:	cf 92       	push	r12
    112c:	df 92       	push	r13
    112e:	ef 92       	push	r14
    1130:	ff 92       	push	r15
    1132:	cf 93       	push	r28
    1134:	5c 01       	movw	r10, r24
    1136:	0e 94 00 00 	call	0	; 0x0 <ctrl_set>
    113a:	e1 2c       	mov	r14, r1
    113c:	f1 2c       	mov	r15, r1
    113e:	c1 2c       	mov	r12, r1
    1140:	d1 2c       	mov	r13, r1
    1142:	00 c0       	rjmp	.+0      	; 0x1144 <my_lcd_display+0x1e>
    1144:	8a 30       	cpi	r24, 0x0A	; 10
    1146:	01 f0       	breq	.+0      	; 0x1148 <my_lcd_display+0x22>
    1148:	00 c0       	rjmp	.+0      	; 0x114a <my_lcd_display+0x24>
    114a:	20 e1       	ldi	r18, 0x10	; 16
    114c:	e2 16       	cp	r14, r18
    114e:	f1 04       	cpc	r15, r1
    1150:	04 f0       	brlt	.+0      	; 0x1152 <my_lcd_display+0x2c>
    1152:	00 c0       	rjmp	.+0      	; 0x1154 <my_lcd_display+0x2e>
    1154:	8f ef       	ldi	r24, 0xFF	; 255
    1156:	e8 1a       	sub	r14, r24
    1158:	f8 0a       	sbc	r15, r24
    115a:	00 c0       	rjmp	.+0      	; 0x115c <my_lcd_display+0x36>
    115c:	90 e4       	ldi	r25, 0x40	; 64
    115e:	c9 16       	cp	r12, r25
    1160:	d1 04       	cpc	r13, r1
    1162:	04 f0       	brlt	.+0      	; 0x1164 <my_lcd_display+0x3e>
    1164:	00 c0       	rjmp	.+0      	; 0x1166 <my_lcd_display+0x40>
    1166:	80 e1       	ldi	r24, 0x10	; 16
    1168:	e8 2e       	mov	r14, r24
    116a:	f1 2c       	mov	r15, r1
    116c:	c0 e4       	ldi	r28, 0x40	; 64
    116e:	cc 2e       	mov	r12, r28
    1170:	d1 2c       	mov	r13, r1
    1172:	f5 01       	movw	r30, r10
    1174:	ee 0d       	add	r30, r14
    1176:	ff 1d       	adc	r31, r15
    1178:	c0 81       	ld	r28, Z
    117a:	c6 01       	movw	r24, r12
    117c:	80 68       	ori	r24, 0x80	; 128
    117e:	0e 94 00 00 	call	0	; 0x0 <ctrl_set>
    1182:	80 e2       	ldi	r24, 0x20	; 32
    1184:	0e 94 00 00 	call	0	; 0x0 <ctrl_set>
    1188:	80 e1       	ldi	r24, 0x10	; 16
    118a:	0e 94 00 00 	call	0	; 0x0 <ctrl_set>
    118e:	80 91 00 00 	lds	r24, 0x0000
    1192:	88 30       	cpi	r24, 0x08	; 8
    1194:	01 f4       	brne	.+0      	; 0x1196 <my_lcd_display+0x70>
    1196:	cb b9       	out	0x0b, r28	; 11
    1198:	0e 94 00 00 	call	0	; 0x0 <ctrl_set>
    119c:	e0 91 00 00 	lds	r30, 0x0000
    11a0:	f0 91 00 00 	lds	r31, 0x0000
    11a4:	ee 0f       	add	r30, r30
    11a6:	ff 1f       	adc	r31, r31
    11a8:	ee 0f       	add	r30, r30
    11aa:	ff 1f       	adc	r31, r31
    11ac:	31 97       	sbiw	r30, 0x01	; 1
    11ae:	01 f4       	brne	.+0      	; 0x11b0 <my_lcd_display+0x8a>
    11b0:	80 91 00 00 	lds	r24, 0x0000
    11b4:	84 30       	cpi	r24, 0x04	; 4
    11b6:	01 f4       	brne	.+0      	; 0x11b8 <my_lcd_display+0x92>
    11b8:	8c 2f       	mov	r24, r28
    11ba:	80 7f       	andi	r24, 0xF0	; 240
    11bc:	8b b9       	out	0x0b, r24	; 11
    11be:	0e 94 00 00 	call	0	; 0x0 <ctrl_set>
    11c2:	20 e1       	ldi	r18, 0x10	; 16
    11c4:	c2 9f       	mul	r28, r18
    11c6:	c0 01       	movw	r24, r0
    11c8:	11 24       	eor	r1, r1
    11ca:	8b b9       	out	0x0b, r24	; 11
    11cc:	0e 94 00 00 	call	0	; 0x0 <ctrl_set>
    11d0:	e0 91 00 00 	lds	r30, 0x0000
    11d4:	f0 91 00 00 	lds	r31, 0x0000
    11d8:	ee 0f       	add	r30, r30
    11da:	ff 1f       	adc	r31, r31
    11dc:	ee 0f       	add	r30, r30
    11de:	ff 1f       	adc	r31, r31
    11e0:	31 97       	sbiw	r30, 0x01	; 1
    11e2:	01 f4       	brne	.+0      	; 0x11e4 <my_lcd_display+0xbe>
    11e4:	8f ef       	ldi	r24, 0xFF	; 255
    11e6:	e8 1a       	sub	r14, r24
    11e8:	f8 0a       	sbc	r15, r24
    11ea:	9f ef       	ldi	r25, 0xFF	; 255
    11ec:	c9 1a       	sub	r12, r25
    11ee:	d9 0a       	sbc	r13, r25
    11f0:	20 e2       	ldi	r18, 0x20	; 32
    11f2:	e2 16       	cp	r14, r18
    11f4:	f1 04       	cpc	r15, r1
    11f6:	04 f4       	brge	.+0      	; 0x11f8 <my_lcd_display+0xd2>
    11f8:	f5 01       	movw	r30, r10
    11fa:	ee 0d       	add	r30, r14
    11fc:	ff 1d       	adc	r31, r15
    11fe:	80 81       	ld	r24, Z
    1200:	81 11       	cpse	r24, r1
    1202:	00 c0       	rjmp	.+0      	; 0x1204 <my_lcd_display+0xde>
    1204:	00 c0       	rjmp	.+0      	; 0x1206 <my_lcd_display+0xe0>
    1206:	8a 30       	cpi	r24, 0x0A	; 10
    1208:	01 f0       	breq	.+0      	; 0x120a <my_lcd_display+0xe4>
    120a:	70 e1       	ldi	r23, 0x10	; 16
    120c:	e7 2e       	mov	r14, r23
    120e:	f1 2c       	mov	r15, r1
    1210:	00 c0       	rjmp	.+0      	; 0x1212 <my_lcd_display+0xec>
    1212:	90 e1       	ldi	r25, 0x10	; 16
    1214:	e9 16       	cp	r14, r25
    1216:	f1 04       	cpc	r15, r1
    1218:	01 f4       	brne	.+0      	; 0x121a <my_lcd_display+0xf4>
    121a:	00 c0       	rjmp	.+0      	; 0x121c <my_lcd_display+0xf6>
    121c:	20 e1       	ldi	r18, 0x10	; 16
    121e:	e2 16       	cp	r14, r18
    1220:	f1 04       	cpc	r15, r1
    1222:	01 f0       	breq	.+0      	; 0x1224 <my_lcd_display+0xfe>
    1224:	00 c0       	rjmp	.+0      	; 0x1226 <my_lcd_display+0x100>
    1226:	00 c0       	rjmp	.+0      	; 0x1228 <my_lcd_display+0x102>
    1228:	cf 91       	pop	r28
    122a:	ff 90       	pop	r15
    122c:	ef 90       	pop	r14
    122e:	df 90       	pop	r13
    1230:	cf 90       	pop	r12
    1232:	bf 90       	pop	r11
    1234:	af 90       	pop	r10
    1236:	08 95       	ret

Disassembly of section .text.my_lcd_display_AutoWrap:

000046bf <my_lcd_display_AutoWrap>:
    46bf:	2f 92       	push	r2
    46c1:	3f 92       	push	r3
    46c3:	4f 92       	push	r4
    46c5:	5f 92       	push	r5
    46c7:	6f 92       	push	r6
    46c9:	7f 92       	push	r7
    46cb:	8f 92       	push	r8
    46cd:	9f 92       	push	r9
    46cf:	af 92       	push	r10
    46d1:	bf 92       	push	r11
    46d3:	cf 92       	push	r12
    46d5:	df 92       	push	r13
    46d7:	ef 92       	push	r14
    46d9:	ff 92       	push	r15
    46db:	0f 93       	push	r16
    46dd:	1f 93       	push	r17
    46df:	cf 93       	push	r28
    46e1:	df 93       	push	r29
    46e3:	cd b7       	in	r28, 0x3d	; 61
    46e5:	de b7       	in	r29, 0x3e	; 62
    46e7:	c4 56       	subi	r28, 0x64	; 100
    46e9:	d1 09       	sbc	r29, r1
    46eb:	0f b6       	in	r0, 0x3f	; 63
    46ed:	f8 94       	cli
    46ef:	de bf       	out	0x3e, r29	; 62
    46f1:	0f be       	out	0x3f, r0	; 63
    46f3:	cd bf       	out	0x3d, r28	; 61
    46f5:	a5 96       	adiw	r28, 0x25	; 37
    46f7:	9f af       	std	Y+63, r25	; 0x3f
    46f9:	8e af       	std	Y+62, r24	; 0x3e
    46fb:	a5 97       	sbiw	r28, 0x25	; 37
    46fd:	fb 01       	movw	r30, r22
    46ff:	40 e0       	ldi	r20, 0x00	; 0
    4701:	50 e0       	ldi	r21, 0x00	; 0
    4703:	00 c0       	rjmp	.+0      	; 0x4705 <my_lcd_display_AutoWrap+0x46>
    4705:	21 91       	ld	r18, Z+
    4707:	20 32       	cpi	r18, 0x20	; 32
    4709:	01 f4       	brne	.+0      	; 0x470b <my_lcd_display_AutoWrap+0x4c>
    470b:	4f 5f       	subi	r20, 0xFF	; 255
    470d:	5f 4f       	sbci	r21, 0xFF	; 255
    470f:	00 c0       	rjmp	.+0      	; 0x4711 <my_lcd_display_AutoWrap+0x52>
    4711:	21 11       	cpse	r18, r1
    4713:	00 c0       	rjmp	.+0      	; 0x4715 <my_lcd_display_AutoWrap+0x56>
    4715:	4f 5f       	subi	r20, 0xFF	; 255
    4717:	5f 4f       	sbci	r21, 0xFF	; 255
    4719:	00 c0       	rjmp	.+0      	; 0x471b <my_lcd_display_AutoWrap+0x5c>
    471b:	9f 01       	movw	r18, r30
    471d:	26 1b       	sub	r18, r22
    471f:	37 0b       	sbc	r19, r23
    4721:	a5 96       	adiw	r28, 0x25	; 37
    4723:	8e ad       	ldd	r24, Y+62	; 0x3e
    4725:	9f ad       	ldd	r25, Y+63	; 0x3f
    4727:	a5 97       	sbiw	r28, 0x25	; 37
    4729:	28 17       	cp	r18, r24
    472b:	39 07       	cpc	r19, r25
    472d:	04 f0       	brlt	.+0      	; 0x472f <my_lcd_display_AutoWrap+0x70>
    472f:	a3 96       	adiw	r28, 0x23	; 35
    4731:	1f ae       	std	Y+63, r1	; 0x3f
    4733:	1e ae       	std	Y+62, r1	; 0x3e
    4735:	a3 97       	sbiw	r28, 0x23	; 35
    4737:	20 e0       	ldi	r18, 0x00	; 0
    4739:	30 e0       	ldi	r19, 0x00	; 0
    473b:	e0 e0       	ldi	r30, 0x00	; 0
    473d:	f0 e0       	ldi	r31, 0x00	; 0
    473f:	8e 01       	movw	r16, r28
    4741:	0f 5f       	subi	r16, 0xFF	; 255
    4743:	1f 4f       	sbci	r17, 0xFF	; 255
    4745:	3a 01       	movw	r6, r20
    4747:	91 e0       	ldi	r25, 0x01	; 1
    4749:	69 1a       	sub	r6, r25
    474b:	71 08       	sbc	r7, r1
    474d:	b0 e2       	ldi	r27, 0x20	; 32
    474f:	2b 2e       	mov	r2, r27
    4751:	00 c0       	rjmp	.+0      	; 0x4753 <my_lcd_display_AutoWrap+0x94>
    4753:	af ef       	ldi	r26, 0xFF	; 255
    4755:	ea 1a       	sub	r14, r26
    4757:	fa 0a       	sbc	r15, r26
    4759:	b0 e2       	ldi	r27, 0x20	; 32
    475b:	5b 12       	cpse	r5, r27
    475d:	00 c0       	rjmp	.+0      	; 0x475f <my_lcd_display_AutoWrap+0xa0>
    475f:	8f ef       	ldi	r24, 0xFF	; 255
    4761:	c8 1a       	sub	r12, r24
    4763:	d8 0a       	sbc	r13, r24
    4765:	57 01       	movw	r10, r14
    4767:	00 c0       	rjmp	.+0      	; 0x4769 <my_lcd_display_AutoWrap+0xaa>
    4769:	4b 01       	movw	r8, r22
    476b:	e1 2c       	mov	r14, r1
    476d:	f1 2c       	mov	r15, r1
    476f:	a1 2c       	mov	r10, r1
    4771:	b1 2c       	mov	r11, r1
    4773:	c1 2c       	mov	r12, r1
    4775:	d1 2c       	mov	r13, r1
    4777:	a3 96       	adiw	r28, 0x23	; 35
    4779:	ae ad       	ldd	r26, Y+62	; 0x3e
    477b:	bf ad       	ldd	r27, Y+63	; 0x3f
    477d:	a3 97       	sbiw	r28, 0x23	; 35
    477f:	ca 16       	cp	r12, r26
    4781:	db 06       	cpc	r13, r27
    4783:	01 f4       	brne	.+0      	; 0x4785 <my_lcd_display_AutoWrap+0xc6>
    4785:	4b 01       	movw	r8, r22
    4787:	8a 0c       	add	r8, r10
    4789:	9b 1c       	adc	r9, r11
    478b:	68 01       	movw	r12, r16
    478d:	e1 2c       	mov	r14, r1
    478f:	f1 2c       	mov	r15, r1
    4791:	a0 1a       	sub	r10, r16
    4793:	b1 0a       	sbc	r11, r17
    4795:	00 c0       	rjmp	.+0      	; 0x4797 <my_lcd_display_AutoWrap+0xd8>
    4797:	d4 01       	movw	r26, r8
    4799:	5d 90       	ld	r5, X+
    479b:	4d 01       	movw	r8, r26
    479d:	55 20       	and	r5, r5
    479f:	01 f0       	breq	.+0      	; 0x47a1 <my_lcd_display_AutoWrap+0xe2>
    47a1:	a5 96       	adiw	r28, 0x25	; 37
    47a3:	8e ad       	ldd	r24, Y+62	; 0x3e
    47a5:	9f ad       	ldd	r25, Y+63	; 0x3f
    47a7:	a5 97       	sbiw	r28, 0x25	; 37
    47a9:	e8 16       	cp	r14, r24
    47ab:	f9 06       	cpc	r15, r25
    47ad:	04 f0       	brlt	.+0      	; 0x47af <my_lcd_display_AutoWrap+0xf0>
    47af:	00 c0       	rjmp	.+0      	; 0x47b1 <my_lcd_display_AutoWrap+0xf2>
    47b1:	d6 01       	movw	r26, r12
    47b3:	3d 92       	st	X+, r3
    47b5:	6d 01       	movw	r12, r26
    47b7:	7d 01       	movw	r14, r26
    47b9:	e0 1a       	sub	r14, r16
    47bb:	f1 0a       	sbc	r15, r17
    47bd:	d4 01       	movw	r26, r8
    47bf:	3d 90       	ld	r3, X+
    47c1:	4d 01       	movw	r8, r26
    47c3:	b0 e2       	ldi	r27, 0x20	; 32
    47c5:	3b 12       	cpse	r3, r27
    47c7:	00 c0       	rjmp	.+0      	; 0x47c9 <my_lcd_display_AutoWrap+0x10a>
    47c9:	68 01       	movw	r12, r16
    47cb:	ce 0c       	add	r12, r14
    47cd:	df 1c       	adc	r13, r15
    47cf:	d6 01       	movw	r26, r12
    47d1:	1c 92       	st	X, r1
    47d3:	6f 01       	movw	r12, r30
    47d5:	ce 0c       	add	r12, r14
    47d7:	df 1c       	adc	r13, r15
    47d9:	b1 e1       	ldi	r27, 0x11	; 17
    47db:	cb 16       	cp	r12, r27
    47dd:	d1 04       	cpc	r13, r1
    47df:	04 f4       	brge	.+0      	; 0x47e1 <my_lcd_display_AutoWrap+0x122>
    47e1:	00 c0       	rjmp	.+0      	; 0x47e3 <my_lcd_display_AutoWrap+0x124>
    47e3:	33 20       	and	r3, r3
    47e5:	01 f0       	breq	.+0      	; 0x47e7 <my_lcd_display_AutoWrap+0x128>
    47e7:	25 01       	movw	r4, r10
    47e9:	4c 0c       	add	r4, r12
    47eb:	5d 1c       	adc	r5, r13
    47ed:	a5 96       	adiw	r28, 0x25	; 37
    47ef:	8e ad       	ldd	r24, Y+62	; 0x3e
    47f1:	9f ad       	ldd	r25, Y+63	; 0x3f
    47f3:	a5 97       	sbiw	r28, 0x25	; 37
    47f5:	48 16       	cp	r4, r24
    47f7:	59 06       	cpc	r5, r25
    47f9:	04 f0       	brlt	.+0      	; 0x47fb <my_lcd_display_AutoWrap+0x13c>
    47fb:	00 c0       	rjmp	.+0      	; 0x47fd <my_lcd_display_AutoWrap+0x13e>
    47fd:	e1 e4       	ldi	r30, 0x41	; 65
    47ff:	f0 e0       	ldi	r31, 0x00	; 0
    4801:	ec 0f       	add	r30, r28
    4803:	fd 1f       	adc	r31, r29
    4805:	e2 0f       	add	r30, r18
    4807:	f3 1f       	adc	r31, r19
    4809:	9a e0       	ldi	r25, 0x0A	; 10
    480b:	90 83       	st	Z, r25
    480d:	2f 5f       	subi	r18, 0xFF	; 255
    480f:	3f 4f       	sbci	r19, 0xFF	; 255
    4811:	e0 e0       	ldi	r30, 0x00	; 0
    4813:	f0 e0       	ldi	r31, 0x00	; 0
    4815:	58 01       	movw	r10, r16
    4817:	c1 2c       	mov	r12, r1
    4819:	d1 2c       	mov	r13, r1
    481b:	a1 e4       	ldi	r26, 0x41	; 65
    481d:	8a 2e       	mov	r8, r26
    481f:	91 2c       	mov	r9, r1
    4821:	8c 0e       	add	r8, r28
    4823:	9d 1e       	adc	r9, r29
    4825:	82 0e       	add	r8, r18
    4827:	93 1e       	adc	r9, r19
    4829:	00 c0       	rjmp	.+0      	; 0x482b <my_lcd_display_AutoWrap+0x16c>
    482b:	d5 01       	movw	r26, r10
    482d:	3d 90       	ld	r3, X+
    482f:	5d 01       	movw	r10, r26
    4831:	24 01       	movw	r4, r8
    4833:	4c 0c       	add	r4, r12
    4835:	5d 1c       	adc	r5, r13
    4837:	d2 01       	movw	r26, r4
    4839:	3c 92       	st	X, r3
    483b:	bf ef       	ldi	r27, 0xFF	; 255
    483d:	cb 1a       	sub	r12, r27
    483f:	db 0a       	sbc	r13, r27
    4841:	ce 14       	cp	r12, r14
    4843:	df 04       	cpc	r13, r15
    4845:	04 f0       	brlt	.+0      	; 0x4847 <my_lcd_display_AutoWrap+0x188>
    4847:	f7 fe       	sbrs	r15, 7
    4849:	00 c0       	rjmp	.+0      	; 0x484b <my_lcd_display_AutoWrap+0x18c>
    484b:	e1 2c       	mov	r14, r1
    484d:	f1 2c       	mov	r15, r1
    484f:	ee 0d       	add	r30, r14
    4851:	ff 1d       	adc	r31, r15
    4853:	2e 0d       	add	r18, r14
    4855:	3f 1d       	adc	r19, r15
    4857:	a3 96       	adiw	r28, 0x23	; 35
    4859:	8e ad       	ldd	r24, Y+62	; 0x3e
    485b:	9f ad       	ldd	r25, Y+63	; 0x3f
    485d:	a3 97       	sbiw	r28, 0x23	; 35
    485f:	86 15       	cp	r24, r6
    4861:	97 05       	cpc	r25, r7
    4863:	04 f4       	brge	.+0      	; 0x4865 <my_lcd_display_AutoWrap+0x1a6>
    4865:	91 e4       	ldi	r25, 0x41	; 65
    4867:	e9 2e       	mov	r14, r25
    4869:	f1 2c       	mov	r15, r1
    486b:	ec 0e       	add	r14, r28
    486d:	fd 1e       	adc	r15, r29
    486f:	e2 0e       	add	r14, r18
    4871:	f3 1e       	adc	r15, r19
    4873:	d7 01       	movw	r26, r14
    4875:	2c 92       	st	X, r2
    4877:	2f 5f       	subi	r18, 0xFF	; 255
    4879:	3f 4f       	sbci	r19, 0xFF	; 255
    487b:	31 96       	adiw	r30, 0x01	; 1
    487d:	a3 96       	adiw	r28, 0x23	; 35
    487f:	8e ad       	ldd	r24, Y+62	; 0x3e
    4881:	9f ad       	ldd	r25, Y+63	; 0x3f
    4883:	a3 97       	sbiw	r28, 0x23	; 35
    4885:	01 96       	adiw	r24, 0x01	; 1
    4887:	a3 96       	adiw	r28, 0x23	; 35
    4889:	9f af       	std	Y+63, r25	; 0x3f
    488b:	8e af       	std	Y+62, r24	; 0x3e
    488d:	a3 97       	sbiw	r28, 0x23	; 35
    488f:	a3 96       	adiw	r28, 0x23	; 35
    4891:	ae ad       	ldd	r26, Y+62	; 0x3e
    4893:	bf ad       	ldd	r27, Y+63	; 0x3f
    4895:	a3 97       	sbiw	r28, 0x23	; 35
    4897:	a4 17       	cp	r26, r20
    4899:	b5 07       	cpc	r27, r21
    489b:	04 f4       	brge	.+0      	; 0x489d <my_lcd_display_AutoWrap+0x1de>
    489d:	00 c0       	rjmp	.+0      	; 0x489f <my_lcd_display_AutoWrap+0x1e0>
    489f:	7e 01       	movw	r14, r28
    48a1:	b1 e4       	ldi	r27, 0x41	; 65
    48a3:	eb 0e       	add	r14, r27
    48a5:	f1 1c       	adc	r15, r1
    48a7:	f7 01       	movw	r30, r14
    48a9:	e2 0f       	add	r30, r18
    48ab:	f3 1f       	adc	r31, r19
    48ad:	10 82       	st	Z, r1
    48af:	ff 92       	push	r15
    48b1:	ef 92       	push	r14
    48b3:	80 e0       	ldi	r24, 0x00	; 0
    48b5:	90 e0       	ldi	r25, 0x00	; 0
    48b7:	9f 93       	push	r25
    48b9:	8f 93       	push	r24
    48bb:	1f 92       	push	r1
    48bd:	80 e2       	ldi	r24, 0x20	; 32
    48bf:	8f 93       	push	r24
    48c1:	ff 92       	push	r15
    48c3:	ef 92       	push	r14
    48c5:	0e 94 00 00 	call	0	; 0x0 <ctrl_set>
    48c9:	c7 01       	movw	r24, r14
    48cb:	0e 94 00 00 	call	0	; 0x0 <ctrl_set>
    48cf:	0f b6       	in	r0, 0x3f	; 63
    48d1:	f8 94       	cli
    48d3:	de bf       	out	0x3e, r29	; 62
    48d5:	0f be       	out	0x3f, r0	; 63
    48d7:	cd bf       	out	0x3d, r28	; 61
    48d9:	cc 59       	subi	r28, 0x9C	; 156
    48db:	df 4f       	sbci	r29, 0xFF	; 255
    48dd:	0f b6       	in	r0, 0x3f	; 63
    48df:	f8 94       	cli
    48e1:	de bf       	out	0x3e, r29	; 62
    48e3:	0f be       	out	0x3f, r0	; 63
    48e5:	cd bf       	out	0x3d, r28	; 61
    48e7:	df 91       	pop	r29
    48e9:	cf 91       	pop	r28
    48eb:	1f 91       	pop	r17
    48ed:	0f 91       	pop	r16
    48ef:	ff 90       	pop	r15
    48f1:	ef 90       	pop	r14
    48f3:	df 90       	pop	r13
    48f5:	cf 90       	pop	r12
    48f7:	bf 90       	pop	r11
    48f9:	af 90       	pop	r10
    48fb:	9f 90       	pop	r9
    48fd:	8f 90       	pop	r8
    48ff:	7f 90       	pop	r7
    4901:	6f 90       	pop	r6
    4903:	5f 90       	pop	r5
    4905:	4f 90       	pop	r4
    4907:	3f 90       	pop	r3
    4909:	2f 90       	pop	r2
    490b:	08 95       	ret
